target datalayout = "e-m:e-p270:32:32-p271:32:32-p272:64:64-i64:64-i128:128-f80:128-n8:16:32:64-S128"
target triple = "x86_64-pc-linux-gnu"

%"class.std::basic_string_view" = type { i64, ptr }
%struct.WasmEdge_String = type { i32, ptr }
%"class.WasmEdge::AST::Desc" = type { i8, %"class.std::__cxx11::basic_string" }
%"class.std::__cxx11::basic_string" = type { %"struct.std::__cxx11::basic_string<char>::_Alloc_hider", i64, %union.anon.128 }
%"struct.std::__cxx11::basic_string<char>::_Alloc_hider" = type { ptr }
%union.anon.128 = type { i64, [8 x i8] }

; Function Attrs: mustprogress nounwind uwtable
define linkonce_odr hidden noundef ptr @_ZNKSt17basic_string_viewIcSt11char_traitsIcEE4dataEv(ptr noundef nonnull align 8 dereferenceable(16) %0) #0 comdat align 2 {
  %2 = alloca ptr, align 8
  store ptr %0, ptr %2, align 8
  %3 = load ptr, ptr %2, align 8
  %4 = getelementptr inbounds %"class.std::basic_string_view", ptr %3, i32 0, i32 1
  %5 = load ptr, ptr %4, align 8
  ret ptr %5
}

; Function Attrs: mustprogress nounwind uwtable
define linkonce_odr hidden noundef i64 @_ZNKSt17basic_string_viewIcSt11char_traitsIcEE6lengthEv(ptr noundef nonnull align 8 dereferenceable(16) %0) #0 comdat align 2 {
  %2 = alloca ptr, align 8
  store ptr %0, ptr %2, align 8
  %3 = load ptr, ptr %2, align 8
  %4 = getelementptr inbounds %"class.std::basic_string_view", ptr %3, i32 0, i32 0
  %5 = load i64, ptr %4, align 8
  ret i64 %5
}

; Function Attrs: mustprogress nounwind uwtable
define linkonce_odr hidden { i64, ptr } @_ZNK8WasmEdge3AST4Desc15getExternalNameEv(ptr noundef nonnull align 8 dereferenceable(40) %0) #0 comdat align 2 {
  %2 = alloca %"class.std::basic_string_view", align 8
  %3 = alloca ptr, align 8
  store ptr %0, ptr %3, align 8
  %4 = load ptr, ptr %3, align 8
  %5 = getelementptr inbounds %"class.WasmEdge::AST::Desc", ptr %4, i32 0, i32 1
  %6 = call { i64, ptr } @_ZNKSt7__cxx1112basic_stringIcSt11char_traitsIcESaIcEEcvSt17basic_string_viewIcS2_EEv(ptr noundef nonnull align 8 dereferenceable(32) %5) #18
  %7 = getelementptr inbounds { i64, ptr }, ptr %2, i32 0, i32 0
  %8 = extractvalue { i64, ptr } %6, 0
  store i64 %8, ptr %7, align 8
  %9 = getelementptr inbounds { i64, ptr }, ptr %2, i32 0, i32 1
  %10 = extractvalue { i64, ptr } %6, 1
  store ptr %10, ptr %9, align 8
  %11 = load { i64, ptr }, ptr %2, align 8
  ret { i64, ptr } %11
}

; Function Attrs: mustprogress nounwind uwtable
define internal noundef ptr @_ZN12_GLOBAL__N_114fromImpTypeCxtEPK26WasmEdge_ImportTypeContext(ptr noundef %0) #0 {
  %2 = alloca ptr, align 8
  store ptr %0, ptr %2, align 8
  %3 = load ptr, ptr %2, align 8
  ret ptr %3
}

; Function Attrs: mustprogress nounwind uwtable
define { i32, ptr } @WasmEdge_ImportTypeGetExternalName(ptr noundef %0) #0 {
  %2 = alloca %struct.WasmEdge_String, align 8
  %3 = alloca ptr, align 8
  %4 = alloca %"class.std::basic_string_view", align 8
  store ptr %0, ptr %3, align 8
  %5 = load ptr, ptr %3, align 8
  %6 = icmp ne ptr %5, null
  br i1 %6, label %7, label %20

7:                                                ; preds = %1
  %8 = load ptr, ptr %3, align 8
  %9 = call noundef ptr @_ZN12_GLOBAL__N_114fromImpTypeCxtEPK26WasmEdge_ImportTypeContext(ptr noundef %8) #18
  %10 = call { i64, ptr } @_ZNK8WasmEdge3AST4Desc15getExternalNameEv(ptr noundef nonnull align 8 dereferenceable(40) %9) #18
  %11 = getelementptr inbounds { i64, ptr }, ptr %4, i32 0, i32 0
  %12 = extractvalue { i64, ptr } %10, 0
  store i64 %12, ptr %11, align 8
  %13 = getelementptr inbounds { i64, ptr }, ptr %4, i32 0, i32 1
  %14 = extractvalue { i64, ptr } %10, 1
  store ptr %14, ptr %13, align 8
  %15 = getelementptr inbounds %struct.WasmEdge_String, ptr %2, i32 0, i32 0
  %16 = call noundef i64 @_ZNKSt17basic_string_viewIcSt11char_traitsIcEE6lengthEv(ptr noundef nonnull align 8 dereferenceable(16) %4) #18
  %17 = trunc i64 %16 to i32
  store i32 %17, ptr %15, align 8
  %18 = getelementptr inbounds %struct.WasmEdge_String, ptr %2, i32 0, i32 1
  %19 = call noundef ptr @_ZNKSt17basic_string_viewIcSt11char_traitsIcEE4dataEv(ptr noundef nonnull align 8 dereferenceable(16) %4) #18
  store ptr %19, ptr %18, align 8
  br label %23

20:                                               ; preds = %1
  %21 = getelementptr inbounds %struct.WasmEdge_String, ptr %2, i32 0, i32 0
  store i32 0, ptr %21, align 8
  %22 = getelementptr inbounds %struct.WasmEdge_String, ptr %2, i32 0, i32 1
  store ptr null, ptr %22, align 8
  br label %23

23:                                               ; preds = %20, %7
  %24 = load { i32, ptr }, ptr %2, align 8
  ret { i32, ptr } %24
}