; Function Attrs: mustprogress nounwind uwtable
define { i32, ptr } @WasmEdge_ImportTypeGetExternalName(ptr noundef %0) local_unnamed_addr #10 {
  %.not = icmp eq ptr %0, null
  br i1 %.not, label %8, label %2

2:                                                ; preds = %1
  %3 = getelementptr inbounds i8, ptr %0, i64 8
  %4 = tail call { i64, ptr } @_ZNKSt7__cxx1112basic_stringIcSt11char_traitsIcESaIcEEcvSt17basic_string_viewIcS2_EEv(ptr noundef nonnull align 8 dereferenceable(32) %3) #37
  %5 = extractvalue { i64, ptr } %4, 0
  %6 = extractvalue { i64, ptr } %4, 1
  %7 = trunc i64 %5 to i32
  br label %8

8:                                                ; preds = %1, %2
  %.sroa.0.0 = phi i32 [ %7, %2 ], [ 0, %1 ]
  %.sroa.3.0 = phi ptr [ %6, %2 ], [ null, %1 ]
  %.fca.0.insert = insertvalue { i32, ptr } poison, i32 %.sroa.0.0, 0
  %.fca.1.insert = insertvalue { i32, ptr } %.fca.0.insert, ptr %.sroa.3.0, 1
  ret { i32, ptr } %.fca.1.insert
}